; Function Attrs: inlinehint mustprogress nounwind uwtable
define internal void @_ZN4Luau12_GLOBAL__N_122AutocompleteNodeFinderD0Ev(ptr noundef nonnull align 8 dereferenceable(40) initializes((0, 8)) %0) unnamed_addr #6 align 2 personality ptr @__gxx_personality_v0 {
  store ptr getelementptr inbounds nuw inrange(-16, 496) (i8, ptr @_ZTVN4Luau12_GLOBAL__N_122AutocompleteNodeFinderE, i64 16), ptr %0, align 8, !tbaa !8
  %2 = getelementptr inbounds nuw i8, ptr %0, i64 16
  %3 = load ptr, ptr %2, align 8, !tbaa !28
  %.not.i.i.i.i = icmp eq ptr %3, null
  br i1 %.not.i.i.i.i, label %_ZN4Luau12_GLOBAL__N_122AutocompleteNodeFinderD2Ev.exit, label %4

4:                                                ; preds = %1
  %5 = getelementptr inbounds nuw i8, ptr %0, i64 32
  %6 = load ptr, ptr %5, align 8, !tbaa !25
  %7 = ptrtoint ptr %6 to i64
  %8 = ptrtoint ptr %3 to i64
  %9 = sub i64 %7, %8
  tail call void @_ZdlPvm(ptr noundef nonnull %3, i64 noundef %9) #23
  br label %_ZN4Luau12_GLOBAL__N_122AutocompleteNodeFinderD2Ev.exit

_ZN4Luau12_GLOBAL__N_122AutocompleteNodeFinderD2Ev.exit: ; preds = %1, %4
  tail call void @_ZdlPvm(ptr noundef nonnull %0, i64 noundef 40) #23
  ret void
}